; ModuleID = '11/219.c'
source_filename = "11/219.c"
target datalayout = "e-m:e-p270:32:32-p271:32:32-p272:64:64-i64:64-f80:128-n8:16:32:64-S128"
target triple = "x86_64-pc-linux-gnu"

@.str = private unnamed_addr constant [9 x i8] c"%d %d %d\00", align 1
@.str.1 = private unnamed_addr constant [16 x i8] c"Illegal input.\0A\00", align 1
@days = internal global [13 x i32] [i32 0, i32 31, i32 28, i32 31, i32 30, i32 31, i32 30, i32 31, i32 31, i32 30, i32 31, i32 30, i32 31], align 16
@.str.2 = private unnamed_addr constant [4 x i8] c"%d\0A\00", align 1

; Function Attrs: noinline nounwind uwtable
define dso_local i32 @main() #0 {
  %1 = alloca i32, align 4
  %2 = alloca i32, align 4
  %3 = alloca i32, align 4
  %4 = alloca i32, align 4
  %5 = alloca i32, align 4
  %6 = alloca i32, align 4
  %7 = alloca i32, align 4
  store i32 0, i32* %1, align 4
  store i32 0, i32* %5, align 4
  br label %8

8:                                                ; preds = %93, %0
  %9 = load i32, i32* %5, align 4
  %10 = icmp slt i32 %9, 5
  br i1 %10, label %11, label %96

11:                                               ; preds = %8
  store i32 0, i32* %6, align 4
  %12 = call i32 (i8*, ...) @__isoc99_scanf(i8* getelementptr inbounds ([9 x i8], [9 x i8]* @.str, i64 0, i64 0), i32* %2, i32* %3, i32* %4)
  %13 = load i32, i32* %2, align 4
  %14 = call i32 @isleapyear(i32 %13)
  %15 = icmp ne i32 %14, 0
  br i1 %15, label %16, label %27

16:                                               ; preds = %11
  %17 = load i32, i32* %3, align 4
  %18 = icmp eq i32 %17, 2
  br i1 %18, label %19, label %27

19:                                               ; preds = %16
  %20 = load i32, i32* %4, align 4
  %21 = icmp slt i32 %20, 1
  br i1 %21, label %25, label %22

22:                                               ; preds = %19
  %23 = load i32, i32* %4, align 4
  %24 = icmp sgt i32 %23, 29
  br i1 %24, label %25, label %27

25:                                               ; preds = %22, %19
  %26 = call i32 (i8*, ...) @printf(i8* getelementptr inbounds ([16 x i8], [16 x i8]* @.str.1, i64 0, i64 0))
  store i32 -1, i32* %1, align 4
  br label %97

27:                                               ; preds = %22, %16, %11
  %28 = load i32, i32* %2, align 4
  %29 = call i32 @isleapyear(i32 %28)
  %30 = icmp ne i32 %29, 0
  br i1 %30, label %31, label %46

31:                                               ; preds = %27
  %32 = load i32, i32* %3, align 4
  %33 = icmp ne i32 %32, 2
  br i1 %33, label %34, label %46

34:                                               ; preds = %31
  %35 = load i32, i32* %4, align 4
  %36 = icmp slt i32 %35, 1
  br i1 %36, label %44, label %37

37:                                               ; preds = %34
  %38 = load i32, i32* %4, align 4
  %39 = load i32, i32* %3, align 4
  %40 = sext i32 %39 to i64
  %41 = getelementptr inbounds [13 x i32], [13 x i32]* @days, i64 0, i64 %40
  %42 = load i32, i32* %41, align 4
  %43 = icmp sgt i32 %38, %42
  br i1 %43, label %44, label %46

44:                                               ; preds = %37, %34
  %45 = call i32 (i8*, ...) @printf(i8* getelementptr inbounds ([16 x i8], [16 x i8]* @.str.1, i64 0, i64 0))
  store i32 -1, i32* %1, align 4
  br label %97

46:                                               ; preds = %37, %31, %27
  %47 = load i32, i32* %2, align 4
  %48 = call i32 @isleapyear(i32 %47)
  %49 = icmp ne i32 %48, 0
  br i1 %49, label %62, label %50

50:                                               ; preds = %46
  %51 = load i32, i32* %4, align 4
  %52 = icmp slt i32 %51, 1
  br i1 %52, label %60, label %53

53:                                               ; preds = %50
  %54 = load i32, i32* %4, align 4
  %55 = load i32, i32* %3, align 4
  %56 = sext i32 %55 to i64
  %57 = getelementptr inbounds [13 x i32], [13 x i32]* @days, i64 0, i64 %56
  %58 = load i32, i32* %57, align 4
  %59 = icmp sgt i32 %54, %58
  br i1 %59, label %60, label %62

60:                                               ; preds = %53, %50
  %61 = call i32 (i8*, ...) @printf(i8* getelementptr inbounds ([16 x i8], [16 x i8]* @.str.1, i64 0, i64 0))
  store i32 -1, i32* %1, align 4
  br label %97

62:                                               ; preds = %53, %46
  store i32 1, i32* %7, align 4
  br label %63

63:                                               ; preds = %74, %62
  %64 = load i32, i32* %7, align 4
  %65 = load i32, i32* %3, align 4
  %66 = icmp slt i32 %64, %65
  br i1 %66, label %67, label %77

67:                                               ; preds = %63
  %68 = load i32, i32* %7, align 4
  %69 = sext i32 %68 to i64
  %70 = getelementptr inbounds [13 x i32], [13 x i32]* @days, i64 0, i64 %69
  %71 = load i32, i32* %70, align 4
  %72 = load i32, i32* %6, align 4
  %73 = add nsw i32 %72, %71
  store i32 %73, i32* %6, align 4
  br label %74

74:                                               ; preds = %67
  %75 = load i32, i32* %7, align 4
  %76 = add nsw i32 %75, 1
  store i32 %76, i32* %7, align 4
  br label %63

77:                                               ; preds = %63
  %78 = load i32, i32* %4, align 4
  %79 = load i32, i32* %6, align 4
  %80 = add nsw i32 %79, %78
  store i32 %80, i32* %6, align 4
  %81 = load i32, i32* %3, align 4
  %82 = icmp sgt i32 %81, 2
  br i1 %82, label %83, label %90

83:                                               ; preds = %77
  %84 = load i32, i32* %2, align 4
  %85 = call i32 @isleapyear(i32 %84)
  %86 = icmp ne i32 %85, 0
  br i1 %86, label %87, label %90

87:                                               ; preds = %83
  %88 = load i32, i32* %6, align 4
  %89 = add nsw i32 %88, 1
  store i32 %89, i32* %6, align 4
  br label %90

90:                                               ; preds = %87, %83, %77
  %91 = load i32, i32* %6, align 4
  %92 = call i32 (i8*, ...) @printf(i8* getelementptr inbounds ([4 x i8], [4 x i8]* @.str.2, i64 0, i64 0), i32 %91)
  br label %93

93:                                               ; preds = %90
  %94 = load i32, i32* %5, align 4
  %95 = add nsw i32 %94, 1
  store i32 %95, i32* %5, align 4
  br label %8

96:                                               ; preds = %8
  store i32 0, i32* %1, align 4
  br label %97

97:                                               ; preds = %96, %60, %44, %25
  %98 = load i32, i32* %1, align 4
  ret i32 %98
}

declare dso_local i32 @__isoc99_scanf(i8*, ...) #1

; Function Attrs: noinline nounwind uwtable
define internal i32 @isleapyear(i32 %0) #0 {
  %2 = alloca i32, align 4
  store i32 %0, i32* %2, align 4
  %3 = load i32, i32* %2, align 4
  %4 = srem i32 %3, 4
  %5 = icmp eq i32 %4, 0
  br i1 %5, label %6, label %10

6:                                                ; preds = %1
  %7 = load i32, i32* %2, align 4
  %8 = srem i32 %7, 100
  %9 = icmp ne i32 %8, 0
  br i1 %9, label %14, label %10

10:                                               ; preds = %6, %1
  %11 = load i32, i32* %2, align 4
  %12 = srem i32 %11, 400
  %13 = icmp eq i32 %12, 0
  br label %14

14:                                               ; preds = %10, %6
  %15 = phi i1 [ true, %6 ], [ %13, %10 ]
  %16 = zext i1 %15 to i32
  ret i32 %16
}

declare dso_local i32 @printf(i8*, ...) #1


!llvm.module.flags = !{!0}
!llvm.ident = !{!1}

!0 = !{i32 1, !"wchar_size", i32 4}
!1 = !{!"clang version 10.0.0-4ubuntu1 "}
